target datalayout = "e-m:e-p270:32:32-p271:32:32-p272:64:64-i64:64-i128:128-f80:128-n8:16:32:64-S128"
target triple = "x86_64-pc-linux-gnu"

%struct.dt_bauhaus_combobox_entry_t = type { ptr, i32, i32, ptr, ptr }

; Function Attrs: nounwind uwtable
define internal void @_free_combobox_entry(ptr noundef %0) #0 {
  %2 = alloca ptr, align 8
  %3 = alloca ptr, align 8
  store ptr %0, ptr %2, align 8, !tbaa !32
  call void @llvm.lifetime.start.p0(i64 8, ptr %3) #13
  %4 = load ptr, ptr %2, align 8, !tbaa !32
  store ptr %4, ptr %3, align 8, !tbaa !174
  %5 = load ptr, ptr %3, align 8, !tbaa !174
  %6 = icmp ne ptr %5, null
  br i1 %6, label %7, label %24

7:                                                ; preds = %1
  %8 = load ptr, ptr %3, align 8, !tbaa !174
  %9 = getelementptr inbounds nuw %struct.dt_bauhaus_combobox_entry_t, ptr %8, i32 0, i32 0
  %10 = load ptr, ptr %9, align 8, !tbaa !176
  call void @g_free(ptr noundef %10)
  %11 = load ptr, ptr %3, align 8, !tbaa !174
  %12 = getelementptr inbounds nuw %struct.dt_bauhaus_combobox_entry_t, ptr %11, i32 0, i32 4
  %13 = load ptr, ptr %12, align 8, !tbaa !274
  %14 = icmp ne ptr %13, null
  br i1 %14, label %15, label %22

15:                                               ; preds = %7
  %16 = load ptr, ptr %3, align 8, !tbaa !174
  %17 = getelementptr inbounds nuw %struct.dt_bauhaus_combobox_entry_t, ptr %16, i32 0, i32 4
  %18 = load ptr, ptr %17, align 8, !tbaa !274
  %19 = load ptr, ptr %3, align 8, !tbaa !174
  %20 = getelementptr inbounds nuw %struct.dt_bauhaus_combobox_entry_t, ptr %19, i32 0, i32 3
  %21 = load ptr, ptr %20, align 8, !tbaa !275
  call void %18(ptr noundef %21)
  br label %22

22:                                               ; preds = %15, %7
  %23 = load ptr, ptr %3, align 8, !tbaa !174
  call void @free(ptr noundef %23) #13
  br label %24

24:                                               ; preds = %22, %1
  call void @llvm.lifetime.end.p0(i64 8, ptr %3) #13
  ret void
}