; Function Attrs: nounwind uwtable
define internal void @_free_combobox_entry(ptr noundef %0) #0 {
  %.not = icmp eq ptr %0, null
  br i1 %.not, label %10, label %2

2:                                                ; preds = %1
  %3 = load ptr, ptr %0, align 8, !tbaa !149
  tail call void @g_free(ptr noundef %3) #19
  %4 = getelementptr inbounds nuw i8, ptr %0, i64 24
  %5 = load ptr, ptr %4, align 8, !tbaa !226
  %.not8 = icmp eq ptr %5, null
  br i1 %.not8, label %9, label %6

6:                                                ; preds = %2
  %7 = getelementptr inbounds nuw i8, ptr %0, i64 16
  %8 = load ptr, ptr %7, align 8, !tbaa !209
  tail call void %5(ptr noundef %8) #19
  br label %9

9:                                                ; preds = %6, %2
  tail call void @free(ptr noundef nonnull %0) #19
  br label %10

10:                                               ; preds = %9, %1
  ret void
}